target datalayout = "e-m:e-p270:32:32-p271:32:32-p272:64:64-i64:64-f80:128-n8:16:32:64-S128"
target triple = "x86_64-pc-linux-gnu"

@n = common dso_local global i32 0, align 4
@main.c = internal global [510 x i8] zeroinitializer, align 16
@main.s = internal global [500 x [2 x i32]] zeroinitializer, align 16
@.str = private unnamed_addr constant [4 x i8] c"%d\0A\00", align 1
@.str.1 = private unnamed_addr constant [3 x i8] c"NO\00", align 1
@.str.2 = private unnamed_addr constant [3 x i8] c"%c\00", align 1
@.str.3 = private unnamed_addr constant [2 x i8] c"\0A\00", align 1

; Function Attrs: noinline nounwind uwtable
define dso_local i32 @f(i8* %0, i32 %1, i32 %2) #0 {
  %4 = alloca i32, align 4
  %5 = alloca i8*, align 8
  %6 = alloca i32, align 4
  %7 = alloca i32, align 4
  %8 = alloca i32, align 4
  store i8* %0, i8** %5, align 8
  store i32 %1, i32* %6, align 4
  store i32 %2, i32* %7, align 4
  store i32 0, i32* %8, align 4
  br label %9

9:                                                ; preds = %33, %3
  %10 = load i32, i32* %8, align 4
  %11 = load i32, i32* @n, align 4
  %12 = icmp slt i32 %10, %11
  br i1 %12, label %13, label %36

13:                                               ; preds = %9
  %14 = load i8*, i8** %5, align 8
  %15 = load i32, i32* %6, align 4
  %16 = load i32, i32* %8, align 4
  %17 = add nsw i32 %15, %16
  %18 = sext i32 %17 to i64
  %19 = getelementptr inbounds i8, i8* %14, i64 %18
  %20 = load i8, i8* %19, align 1
  %21 = sext i8 %20 to i32
  %22 = load i8*, i8** %5, align 8
  %23 = load i32, i32* %7, align 4
  %24 = load i32, i32* %8, align 4
  %25 = add nsw i32 %23, %24
  %26 = sext i32 %25 to i64
  %27 = getelementptr inbounds i8, i8* %22, i64 %26
  %28 = load i8, i8* %27, align 1
  %29 = sext i8 %28 to i32
  %30 = icmp ne i32 %21, %29
  br i1 %30, label %31, label %32

31:                                               ; preds = %13
  store i32 0, i32* %4, align 4
  br label %37

32:                                               ; preds = %13
  br label %33

33:                                               ; preds = %32
  %34 = load i32, i32* %8, align 4
  %35 = add nsw i32 %34, 1
  store i32 %35, i32* %8, align 4
  br label %9

36:                                               ; preds = %9
  store i32 1, i32* %4, align 4
  br label %37

37:                                               ; preds = %36, %31
  %38 = load i32, i32* %4, align 4
  ret i32 %38
}

; Function Attrs: noinline nounwind uwtable
define dso_local i32 @main() #0 {
  %1 = alloca i32, align 4
  %2 = alloca i32, align 4
  %3 = alloca i32, align 4
  %4 = alloca i32, align 4
  %5 = alloca i32, align 4
  %6 = alloca i32, align 4
  store i32 0, i32* %1, align 4
  store i32 0, i32* %6, align 4
  %7 = call i32 (i8*, ...) @__isoc99_scanf(i8* getelementptr inbounds ([4 x i8], [4 x i8]* @.str, i64 0, i64 0), i32* @n)
  %8 = call i32 (i8*, ...) bitcast (i32 (...)* @gets to i32 (i8*, ...)*)(i8* getelementptr inbounds ([510 x i8], [510 x i8]* @main.c, i64 0, i64 0))
  store i32 0, i32* %2, align 4
  br label %9

9:                                                ; preds = %17, %0
  %10 = load i32, i32* %2, align 4
  %11 = sext i32 %10 to i64
  %12 = getelementptr inbounds [510 x i8], [510 x i8]* @main.c, i64 0, i64 %11
  %13 = load i8, i8* %12, align 1
  %14 = sext i8 %13 to i32
  %15 = icmp ne i32 %14, 0
  br i1 %15, label %16, label %20

16:                                               ; preds = %9
  br label %17

17:                                               ; preds = %16
  %18 = load i32, i32* %2, align 4
  %19 = add nsw i32 %18, 1
  store i32 %19, i32* %2, align 4
  br label %9

20:                                               ; preds = %9
  %21 = load i32, i32* %2, align 4
  store i32 %21, i32* %5, align 4
  store i32 0, i32* %2, align 4
  br label %22

22:                                               ; preds = %70, %20
  %23 = load i32, i32* %2, align 4
  %24 = load i32, i32* %5, align 4
  %25 = load i32, i32* @n, align 4
  %26 = sub nsw i32 %24, %25
  %27 = icmp sle i32 %23, %26
  br i1 %27, label %28, label %73

28:                                               ; preds = %22
  store i32 0, i32* %3, align 4
  br label %29

29:                                               ; preds = %50, %28
  %30 = load i32, i32* %3, align 4
  %31 = load i32, i32* %6, align 4
  %32 = icmp slt i32 %30, %31
  br i1 %32, label %33, label %53

33:                                               ; preds = %29
  %34 = load i32, i32* %2, align 4
  %35 = load i32, i32* %3, align 4
  %36 = sext i32 %35 to i64
  %37 = getelementptr inbounds [500 x [2 x i32]], [500 x [2 x i32]]* @main.s, i64 0, i64 %36
  %38 = getelementptr inbounds [2 x i32], [2 x i32]* %37, i64 0, i64 0
  %39 = load i32, i32* %38, align 8
  %40 = call i32 @f(i8* getelementptr inbounds ([510 x i8], [510 x i8]* @main.c, i64 0, i64 0), i32 %34, i32 %39)
  %41 = icmp ne i32 %40, 0
  br i1 %41, label %42, label %49

42:                                               ; preds = %33
  %43 = load i32, i32* %3, align 4
  %44 = sext i32 %43 to i64
  %45 = getelementptr inbounds [500 x [2 x i32]], [500 x [2 x i32]]* @main.s, i64 0, i64 %44
  %46 = getelementptr inbounds [2 x i32], [2 x i32]* %45, i64 0, i64 1
  %47 = load i32, i32* %46, align 4
  %48 = add nsw i32 %47, 1
  store i32 %48, i32* %46, align 4
  br label %53

49:                                               ; preds = %33
  br label %50

50:                                               ; preds = %49
  %51 = load i32, i32* %3, align 4
  %52 = add nsw i32 %51, 1
  store i32 %52, i32* %3, align 4
  br label %29

53:                                               ; preds = %42, %29
  %54 = load i32, i32* %3, align 4
  %55 = load i32, i32* %6, align 4
  %56 = icmp eq i32 %54, %55
  br i1 %56, label %57, label %69

57:                                               ; preds = %53
  %58 = load i32, i32* %2, align 4
  %59 = load i32, i32* %6, align 4
  %60 = sext i32 %59 to i64
  %61 = getelementptr inbounds [500 x [2 x i32]], [500 x [2 x i32]]* @main.s, i64 0, i64 %60
  %62 = getelementptr inbounds [2 x i32], [2 x i32]* %61, i64 0, i64 0
  store i32 %58, i32* %62, align 8
  %63 = load i32, i32* %6, align 4
  %64 = sext i32 %63 to i64
  %65 = getelementptr inbounds [500 x [2 x i32]], [500 x [2 x i32]]* @main.s, i64 0, i64 %64
  %66 = getelementptr inbounds [2 x i32], [2 x i32]* %65, i64 0, i64 1
  store i32 1, i32* %66, align 4
  %67 = load i32, i32* %6, align 4
  %68 = add nsw i32 %67, 1
  store i32 %68, i32* %6, align 4
  br label %69

69:                                               ; preds = %57, %53
  br label %70

70:                                               ; preds = %69
  %71 = load i32, i32* %2, align 4
  %72 = add nsw i32 %71, 1
  store i32 %72, i32* %2, align 4
  br label %22

73:                                               ; preds = %22
  store i32 0, i32* %4, align 4
  store i32 0, i32* %2, align 4
  br label %74

74:                                               ; preds = %96, %73
  %75 = load i32, i32* %2, align 4
  %76 = load i32, i32* %6, align 4
  %77 = icmp slt i32 %75, %76
  br i1 %77, label %78, label %99

78:                                               ; preds = %74
  %79 = load i32, i32* %4, align 4
  %80 = load i32, i32* %2, align 4
  %81 = sext i32 %80 to i64
  %82 = getelementptr inbounds [500 x [2 x i32]], [500 x [2 x i32]]* @main.s, i64 0, i64 %81
  %83 = getelementptr inbounds [2 x i32], [2 x i32]* %82, i64 0, i64 1
  %84 = load i32, i32* %83, align 4
  %85 = icmp sgt i32 %79, %84
  br i1 %85, label %86, label %88

86:                                               ; preds = %78
  %87 = load i32, i32* %4, align 4
  br label %94

88:                                               ; preds = %78
  %89 = load i32, i32* %2, align 4
  %90 = sext i32 %89 to i64
  %91 = getelementptr inbounds [500 x [2 x i32]], [500 x [2 x i32]]* @main.s, i64 0, i64 %90
  %92 = getelementptr inbounds [2 x i32], [2 x i32]* %91, i64 0, i64 1
  %93 = load i32, i32* %92, align 4
  br label %94

94:                                               ; preds = %88, %86
  %95 = phi i32 [ %87, %86 ], [ %93, %88 ]
  store i32 %95, i32* %4, align 4
  br label %96

96:                                               ; preds = %94
  %97 = load i32, i32* %2, align 4
  %98 = add nsw i32 %97, 1
  store i32 %98, i32* %2, align 4
  br label %74

99:                                               ; preds = %74
  %100 = load i32, i32* %4, align 4
  %101 = icmp eq i32 %100, 1
  br i1 %101, label %102, label %104

102:                                              ; preds = %99
  %103 = call i32 (i8*, ...) @printf(i8* getelementptr inbounds ([3 x i8], [3 x i8]* @.str.1, i64 0, i64 0))
  br label %147

104:                                              ; preds = %99
  %105 = load i32, i32* %4, align 4
  %106 = call i32 (i8*, ...) @printf(i8* getelementptr inbounds ([4 x i8], [4 x i8]* @.str, i64 0, i64 0), i32 %105)
  store i32 0, i32* %2, align 4
  br label %107

107:                                              ; preds = %143, %104
  %108 = load i32, i32* %2, align 4
  %109 = load i32, i32* %6, align 4
  %110 = icmp slt i32 %108, %109
  br i1 %110, label %111, label %146

111:                                              ; preds = %107
  %112 = load i32, i32* %4, align 4
  %113 = load i32, i32* %2, align 4
  %114 = sext i32 %113 to i64
  %115 = getelementptr inbounds [500 x [2 x i32]], [500 x [2 x i32]]* @main.s, i64 0, i64 %114
  %116 = getelementptr inbounds [2 x i32], [2 x i32]* %115, i64 0, i64 1
  %117 = load i32, i32* %116, align 4
  %118 = icmp eq i32 %112, %117
  br i1 %118, label %119, label %142

119:                                              ; preds = %111
  store i32 0, i32* %3, align 4
  br label %120

120:                                              ; preds = %137, %119
  %121 = load i32, i32* %3, align 4
  %122 = load i32, i32* @n, align 4
  %123 = icmp slt i32 %121, %122
  br i1 %123, label %124, label %140

124:                                              ; preds = %120
  %125 = load i32, i32* %2, align 4
  %126 = sext i32 %125 to i64
  %127 = getelementptr inbounds [500 x [2 x i32]], [500 x [2 x i32]]* @main.s, i64 0, i64 %126
  %128 = getelementptr inbounds [2 x i32], [2 x i32]* %127, i64 0, i64 0
  %129 = load i32, i32* %128, align 8
  %130 = load i32, i32* %3, align 4
  %131 = add nsw i32 %129, %130
  %132 = sext i32 %131 to i64
  %133 = getelementptr inbounds [510 x i8], [510 x i8]* @main.c, i64 0, i64 %132
  %134 = load i8, i8* %133, align 1
  %135 = sext i8 %134 to i32
  %136 = call i32 (i8*, ...) @printf(i8* getelementptr inbounds ([3 x i8], [3 x i8]* @.str.2, i64 0, i64 0), i32 %135)
  br label %137

137:                                              ; preds = %124
  %138 = load i32, i32* %3, align 4
  %139 = add nsw i32 %138, 1
  store i32 %139, i32* %3, align 4
  br label %120

140:                                              ; preds = %120
  %141 = call i32 (i8*, ...) @printf(i8* getelementptr inbounds ([2 x i8], [2 x i8]* @.str.3, i64 0, i64 0))
  br label %142

142:                                              ; preds = %140, %111
  br label %143

143:                                              ; preds = %142
  %144 = load i32, i32* %2, align 4
  %145 = add nsw i32 %144, 1
  store i32 %145, i32* %2, align 4
  br label %107

146:                                              ; preds = %107
  br label %147

147:                                              ; preds = %146, %102
  %148 = load i32, i32* %1, align 4
  ret i32 %148
}